target datalayout = "e-m:e-p270:32:32-p271:32:32-p272:64:64-i64:64-i128:128-f80:128-n8:16:32:64-S128"
target triple = "x86_64-pc-linux-gnu"

%struct._X11SDOps = type { %struct._SurfaceDataOps, ptr, ptr, i8, i8, ptr, i64, ptr, ptr, i32, i32, ptr, ptr, i64, i32, i8, i32, i32, i64, %struct.ShmPixmapData }
%struct._SurfaceDataOps = type { ptr, ptr, ptr, ptr, ptr, ptr, ptr }
%struct.ShmPixmapData = type { ptr, i32, i8, i64, i8, i64, i64, i32, i32, i32, i32 }
%struct._AwtGraphicsConfigData = type { i32, i64, %struct.XVisualInfo, i32, ptr, ptr, ptr, i64, i32, i32, ptr, i32, ptr, ptr, i32, %struct.XRenderPictFormat }
%struct.XVisualInfo = type { ptr, i64, i32, i32, i32, i64, i64, i64, i32, i32 }
%struct.XRenderPictFormat = type { i64, i32, i32, %struct.XRenderDirectFormat, i64 }
%struct.XRenderDirectFormat = type { i16, i16, i16, i16, i16, i16, i16, i16 }
%struct._XImage = type { i32, i32, i32, i32, ptr, i32, i32, i32, i32, i32, i32, i32, i64, i64, i64, ptr, %struct.funcs }
%struct.funcs = type { ptr, ptr, ptr, ptr, ptr, ptr }

@nativeByteOrder = internal global i32 0, align 4

; Function Attrs: nounwind uwtable
define internal void @X11SD_SwapBytes(ptr noundef %0, ptr noundef %1, i32 noundef %2, i32 noundef %3) #0 {
  %5 = alloca ptr, align 8
  %6 = alloca ptr, align 8
  %7 = alloca i32, align 4
  %8 = alloca i32, align 4
  %9 = alloca i64, align 8
  %10 = alloca i64, align 8
  %11 = alloca ptr, align 8
  %12 = alloca i16, align 2
  %13 = alloca i32, align 4
  %14 = alloca ptr, align 8
  %15 = alloca ptr, align 8
  %16 = alloca i32, align 4
  %17 = alloca i32, align 4
  %18 = alloca ptr, align 8
  %19 = alloca i32, align 4
  store ptr %0, ptr %5, align 8
  store ptr %1, ptr %6, align 8
  store i32 %2, ptr %7, align 4
  store i32 %3, ptr %8, align 4
  %20 = load ptr, ptr %6, align 8
  %21 = getelementptr inbounds %struct._XImage, ptr %20, i32 0, i32 1
  %22 = load i32, ptr %21, align 4
  %23 = sext i32 %22 to i64
  %24 = load ptr, ptr %6, align 8
  %25 = getelementptr inbounds %struct._XImage, ptr %24, i32 0, i32 10
  %26 = load i32, ptr %25, align 4
  %27 = sext i32 %26 to i64
  %28 = mul nsw i64 %23, %27
  store i64 %28, ptr %9, align 8
  %29 = load i32, ptr %7, align 4
  switch i32 %29, label %156 [
    i32 12, label %30
    i32 15, label %30
    i32 16, label %30
    i32 24, label %62
    i32 32, label %125
  ]

30:                                               ; preds = %4, %4, %4
  %31 = load ptr, ptr %6, align 8
  %32 = getelementptr inbounds %struct._XImage, ptr %31, i32 0, i32 4
  %33 = load ptr, ptr %32, align 8
  store ptr %33, ptr %11, align 8
  store i64 0, ptr %10, align 8
  br label %34

34:                                               ; preds = %52, %30
  %35 = load i64, ptr %10, align 8
  %36 = load i64, ptr %9, align 8
  %37 = sdiv i64 %36, 2
  %38 = icmp slt i64 %35, %37
  br i1 %38, label %39, label %55

39:                                               ; preds = %34
  %40 = load ptr, ptr %11, align 8
  %41 = load i16, ptr %40, align 2
  store i16 %41, ptr %12, align 2
  %42 = load i16, ptr %12, align 2
  %43 = zext i16 %42 to i32
  %44 = ashr i32 %43, 8
  %45 = load i16, ptr %12, align 2
  %46 = zext i16 %45 to i32
  %47 = shl i32 %46, 8
  %48 = or i32 %44, %47
  %49 = trunc i32 %48 to i16
  %50 = load ptr, ptr %11, align 8
  %51 = getelementptr inbounds i16, ptr %50, i32 1
  store ptr %51, ptr %11, align 8
  store i16 %49, ptr %50, align 2
  br label %52

52:                                               ; preds = %39
  %53 = load i64, ptr %10, align 8
  %54 = add nsw i64 %53, 1
  store i64 %54, ptr %10, align 8
  br label %34, !llvm.loop !8

55:                                               ; preds = %34
  %56 = load i32, ptr @nativeByteOrder, align 4
  %57 = load ptr, ptr %6, align 8
  %58 = getelementptr inbounds %struct._XImage, ptr %57, i32 0, i32 5
  store i32 %56, ptr %58, align 8
  %59 = load i32, ptr @nativeByteOrder, align 4
  %60 = load ptr, ptr %6, align 8
  %61 = getelementptr inbounds %struct._XImage, ptr %60, i32 0, i32 7
  store i32 %59, ptr %61, align 8
  br label %156

62:                                               ; preds = %4
  %63 = load i32, ptr %8, align 4
  %64 = icmp eq i32 %63, 24
  br i1 %64, label %65, label %124

65:                                               ; preds = %62
  %66 = load ptr, ptr %5, align 8
  %67 = getelementptr inbounds %struct._X11SDOps, ptr %66, i32 0, i32 11
  %68 = load ptr, ptr %67, align 8
  %69 = getelementptr inbounds %struct._AwtGraphicsConfigData, ptr %68, i32 0, i32 2
  %70 = getelementptr inbounds %struct.XVisualInfo, ptr %69, i32 0, i32 5
  %71 = load i64, ptr %70, align 8
  %72 = icmp eq i64 %71, 255
  br i1 %72, label %73, label %123

73:                                               ; preds = %65
  %74 = load ptr, ptr %6, align 8
  %75 = getelementptr inbounds %struct._XImage, ptr %74, i32 0, i32 10
  %76 = load i32, ptr %75, align 4
  store i32 %76, ptr %13, align 4
  %77 = load ptr, ptr %6, align 8
  %78 = getelementptr inbounds %struct._XImage, ptr %77, i32 0, i32 4
  %79 = load ptr, ptr %78, align 8
  store ptr %79, ptr %14, align 8
  store i64 0, ptr %10, align 8
  br label %80

80:                                               ; preds = %115, %73
  %81 = load i64, ptr %10, align 8
  %82 = load ptr, ptr %6, align 8
  %83 = getelementptr inbounds %struct._XImage, ptr %82, i32 0, i32 1
  %84 = load i32, ptr %83, align 4
  %85 = sext i32 %84 to i64
  %86 = icmp slt i64 %81, %85
  br i1 %86, label %87, label %122

87:                                               ; preds = %80
  %88 = load ptr, ptr %14, align 8
  store ptr %88, ptr %15, align 8
  store i32 0, ptr %17, align 4
  br label %89

89:                                               ; preds = %109, %87
  %90 = load i32, ptr %17, align 4
  %91 = load ptr, ptr %6, align 8
  %92 = getelementptr inbounds %struct._XImage, ptr %91, i32 0, i32 0
  %93 = load i32, ptr %92, align 8
  %94 = icmp slt i32 %90, %93
  br i1 %94, label %95, label %114

95:                                               ; preds = %89
  %96 = load ptr, ptr %15, align 8
  %97 = getelementptr inbounds i8, ptr %96, i64 0
  %98 = load i8, ptr %97, align 1
  %99 = zext i8 %98 to i32
  store i32 %99, ptr %16, align 4
  %100 = load ptr, ptr %15, align 8
  %101 = getelementptr inbounds i8, ptr %100, i64 2
  %102 = load i8, ptr %101, align 1
  %103 = load ptr, ptr %15, align 8
  %104 = getelementptr inbounds i8, ptr %103, i64 0
  store i8 %102, ptr %104, align 1
  %105 = load i32, ptr %16, align 4
  %106 = trunc i32 %105 to i8
  %107 = load ptr, ptr %15, align 8
  %108 = getelementptr inbounds i8, ptr %107, i64 2
  store i8 %106, ptr %108, align 1
  br label %109

109:                                              ; preds = %95
  %110 = load i32, ptr %17, align 4
  %111 = add nsw i32 %110, 1
  store i32 %111, ptr %17, align 4
  %112 = load ptr, ptr %15, align 8
  %113 = getelementptr inbounds i8, ptr %112, i64 3
  store ptr %113, ptr %15, align 8
  br label %89, !llvm.loop !9

114:                                              ; preds = %89
  br label %115

115:                                              ; preds = %114
  %116 = load i64, ptr %10, align 8
  %117 = add nsw i64 %116, 1
  store i64 %117, ptr %10, align 8
  %118 = load i32, ptr %13, align 4
  %119 = load ptr, ptr %14, align 8
  %120 = sext i32 %118 to i64
  %121 = getelementptr inbounds i8, ptr %119, i64 %120
  store ptr %121, ptr %14, align 8
  br label %80, !llvm.loop !10

122:                                              ; preds = %80
  br label %123

123:                                              ; preds = %122, %65
  br label %156

124:                                              ; preds = %62
  br label %125

125:                                              ; preds = %124, %4
  %126 = load ptr, ptr %6, align 8
  %127 = getelementptr inbounds %struct._XImage, ptr %126, i32 0, i32 4
  %128 = load ptr, ptr %127, align 8
  store ptr %128, ptr %18, align 8
  store i64 0, ptr %10, align 8
  br label %129

129:                                              ; preds = %152, %125
  %130 = load i64, ptr %10, align 8
  %131 = load i64, ptr %9, align 8
  %132 = sdiv i64 %131, 4
  %133 = icmp slt i64 %130, %132
  br i1 %133, label %134, label %155

134:                                              ; preds = %129
  %135 = load ptr, ptr %18, align 8
  %136 = load i32, ptr %135, align 4
  store i32 %136, ptr %19, align 4
  %137 = load i32, ptr %19, align 4
  %138 = lshr i32 %137, 24
  %139 = load i32, ptr %19, align 4
  %140 = lshr i32 %139, 8
  %141 = and i32 %140, 65280
  %142 = or i32 %138, %141
  %143 = load i32, ptr %19, align 4
  %144 = and i32 %143, 65280
  %145 = shl i32 %144, 8
  %146 = or i32 %142, %145
  %147 = load i32, ptr %19, align 4
  %148 = shl i32 %147, 24
  %149 = or i32 %146, %148
  %150 = load ptr, ptr %18, align 8
  %151 = getelementptr inbounds i32, ptr %150, i32 1
  store ptr %151, ptr %18, align 8
  store i32 %149, ptr %150, align 4
  br label %152

152:                                              ; preds = %134
  %153 = load i64, ptr %10, align 8
  %154 = add nsw i64 %153, 1
  store i64 %154, ptr %10, align 8
  br label %129, !llvm.loop !11

155:                                              ; preds = %129
  br label %156

156:                                              ; preds = %155, %123, %55, %4
  ret void
}