; Function Attrs: nofree norecurse nosync nounwind memory(readwrite, inaccessiblemem: none) uwtable
define internal fastcc void @X11SD_SwapBytes(ptr nocapture noundef readonly %0, ptr nocapture noundef %1, i32 noundef %2, i32 noundef %3) unnamed_addr #14 {
  %5 = getelementptr inbounds i8, ptr %1, i64 4
  %6 = load i32, ptr %5, align 4
  %7 = sext i32 %6 to i64
  %8 = getelementptr inbounds i8, ptr %1, i64 44
  %9 = load i32, ptr %8, align 4
  %10 = sext i32 %9 to i64
  %11 = mul nsw i64 %10, %7
  switch i32 %2, label %.loopexit [
    i32 12, label %12
    i32 15, label %12
    i32 16, label %12
    i32 24, label %23
    i32 32, label %52
  ]

12:                                               ; preds = %4, %4, %4
  %13 = sdiv i64 %11, 2
  %14 = icmp sgt i64 %11, 1
  br i1 %14, label %.lr.ph57.preheader, label %._crit_edge58

.lr.ph57.preheader:                               ; preds = %12
  %15 = getelementptr inbounds i8, ptr %1, i64 16
  %16 = load ptr, ptr %15, align 8
  br label %.lr.ph57

.lr.ph57:                                         ; preds = %.lr.ph57.preheader, %.lr.ph57
  %.055 = phi i64 [ %20, %.lr.ph57 ], [ 0, %.lr.ph57.preheader ]
  %.04354 = phi ptr [ %19, %.lr.ph57 ], [ %16, %.lr.ph57.preheader ]
  %17 = load i16, ptr %.04354, align 2
  %18 = tail call i16 @llvm.bswap.i16(i16 %17)
  %19 = getelementptr inbounds i8, ptr %.04354, i64 2
  store i16 %18, ptr %.04354, align 2
  %20 = add nuw nsw i64 %.055, 1
  %exitcond61.not = icmp eq i64 %20, %13
  br i1 %exitcond61.not, label %._crit_edge58, label %.lr.ph57, !llvm.loop !8

._crit_edge58:                                    ; preds = %.lr.ph57, %12
  %21 = getelementptr inbounds i8, ptr %1, i64 24
  store i32 0, ptr %21, align 8
  %22 = getelementptr inbounds i8, ptr %1, i64 32
  store i32 0, ptr %22, align 8
  br label %.loopexit

23:                                               ; preds = %4
  %24 = icmp eq i32 %3, 24
  br i1 %24, label %25, label %52

25:                                               ; preds = %23
  %26 = getelementptr inbounds i8, ptr %0, i64 120
  %27 = load ptr, ptr %26, align 8
  %28 = getelementptr inbounds i8, ptr %27, i64 48
  %29 = load i64, ptr %28, align 8
  %30 = icmp eq i64 %29, 255
  %31 = icmp sgt i32 %6, 0
  %or.cond = select i1 %30, i1 %31, i1 false
  br i1 %or.cond, label %.preheader.lr.ph, label %.loopexit

.preheader.lr.ph:                                 ; preds = %25
  %32 = load i32, ptr %1, align 8
  %33 = icmp sgt i32 %32, 0
  br i1 %33, label %.preheader.preheader, label %.loopexit

.preheader.preheader:                             ; preds = %.preheader.lr.ph
  %34 = getelementptr inbounds i8, ptr %1, i64 16
  %35 = load ptr, ptr %34, align 8
  br label %.preheader

.preheader:                                       ; preds = %.preheader.preheader, %._crit_edge
  %36 = phi i32 [ %46, %._crit_edge ], [ %6, %.preheader.preheader ]
  %37 = phi i32 [ %47, %._crit_edge ], [ %32, %.preheader.preheader ]
  %.153 = phi i64 [ %48, %._crit_edge ], [ 0, %.preheader.preheader ]
  %.04552 = phi ptr [ %49, %._crit_edge ], [ %35, %.preheader.preheader ]
  %38 = icmp sgt i32 %37, 0
  br i1 %38, label %.lr.ph51, label %._crit_edge

.lr.ph51:                                         ; preds = %.preheader, %.lr.ph51
  %.04250 = phi i32 [ %42, %.lr.ph51 ], [ 0, %.preheader ]
  %.04449 = phi ptr [ %43, %.lr.ph51 ], [ %.04552, %.preheader ]
  %39 = load i8, ptr %.04449, align 1
  %40 = getelementptr inbounds i8, ptr %.04449, i64 2
  %41 = load i8, ptr %40, align 1
  store i8 %41, ptr %.04449, align 1
  store i8 %39, ptr %40, align 1
  %42 = add nuw nsw i32 %.04250, 1
  %43 = getelementptr inbounds i8, ptr %.04449, i64 3
  %44 = load i32, ptr %1, align 8
  %45 = icmp slt i32 %42, %44
  br i1 %45, label %.lr.ph51, label %._crit_edge.loopexit, !llvm.loop !9

._crit_edge.loopexit:                             ; preds = %.lr.ph51
  %.pre = load i32, ptr %5, align 4
  br label %._crit_edge

._crit_edge:                                      ; preds = %._crit_edge.loopexit, %.preheader
  %46 = phi i32 [ %.pre, %._crit_edge.loopexit ], [ %36, %.preheader ]
  %47 = phi i32 [ %44, %._crit_edge.loopexit ], [ %37, %.preheader ]
  %48 = add nuw nsw i64 %.153, 1
  %49 = getelementptr inbounds i8, ptr %.04552, i64 %10
  %50 = sext i32 %46 to i64
  %51 = icmp slt i64 %48, %50
  br i1 %51, label %.preheader, label %.loopexit, !llvm.loop !10

52:                                               ; preds = %23, %4
  %53 = sdiv i64 %11, 4
  %54 = icmp sgt i64 %11, 3
  br i1 %54, label %.lr.ph.preheader, label %.loopexit

.lr.ph.preheader:                                 ; preds = %52
  %55 = getelementptr inbounds i8, ptr %1, i64 16
  %56 = load ptr, ptr %55, align 8
  br label %.lr.ph

.lr.ph:                                           ; preds = %.lr.ph.preheader, %.lr.ph
  %.248 = phi i64 [ %60, %.lr.ph ], [ 0, %.lr.ph.preheader ]
  %.04147 = phi ptr [ %59, %.lr.ph ], [ %56, %.lr.ph.preheader ]
  %57 = load i32, ptr %.04147, align 4
  %58 = tail call i32 @llvm.bswap.i32(i32 %57)
  %59 = getelementptr inbounds i8, ptr %.04147, i64 4
  store i32 %58, ptr %.04147, align 4
  %60 = add nuw nsw i64 %.248, 1
  %exitcond.not = icmp eq i64 %60, %53
  br i1 %exitcond.not, label %.loopexit, label %.lr.ph, !llvm.loop !12

.loopexit:                                        ; preds = %.lr.ph, %._crit_edge, %.preheader.lr.ph, %52, %25, %._crit_edge58, %4
  ret void
}